target datalayout = "e-m:e-p270:32:32-p271:32:32-p272:64:64-i64:64-i128:128-f80:128-n8:16:32:64-S128"
target triple = "x86_64-pc-linux-gnu"

; Function Attrs: nounwind uwtable
define internal i32 @thread_tcache_ncached_max_read_sizeclass_ctl(ptr noundef %0, ptr noundef %1, i64 noundef %2, ptr noundef %3, ptr noundef %4, ptr noundef %5, i64 noundef %6) #0 {
  %8 = alloca i32, align 4
  %9 = alloca ptr, align 8
  %10 = alloca ptr, align 8
  %11 = alloca i64, align 8
  %12 = alloca ptr, align 8
  %13 = alloca ptr, align 8
  %14 = alloca ptr, align 8
  %15 = alloca i64, align 8
  %16 = alloca i32, align 4
  %17 = alloca i64, align 8
  %18 = alloca i16, align 2
  %19 = alloca i64, align 8
  %20 = alloca i64, align 8
  %21 = alloca i32, align 4
  store ptr %0, ptr %9, align 8, !tbaa !3
  store ptr %1, ptr %10, align 8, !tbaa !11
  store i64 %2, ptr %11, align 8, !tbaa !13
  store ptr %3, ptr %12, align 8, !tbaa !10
  store ptr %4, ptr %13, align 8, !tbaa !11
  store ptr %5, ptr %14, align 8, !tbaa !10
  store i64 %6, ptr %15, align 8, !tbaa !13
  call void @llvm.lifetime.start.p0(i64 4, ptr %16) #13
  call void @llvm.lifetime.start.p0(i64 8, ptr %17) #13
  store i64 0, ptr %17, align 8, !tbaa !13
  %22 = load ptr, ptr %14, align 8, !tbaa !10
  %23 = icmp eq ptr %22, null
  br i1 %23, label %24, label %25

24:                                               ; preds = %7
  store i32 22, ptr %16, align 4, !tbaa !19
  br label %77

25:                                               ; preds = %7
  br label %26

26:                                               ; preds = %25
  %27 = load ptr, ptr %14, align 8, !tbaa !10
  %28 = icmp ne ptr %27, null
  br i1 %28, label %29, label %36

29:                                               ; preds = %26
  %30 = load i64, ptr %15, align 8, !tbaa !13
  %31 = icmp ne i64 %30, 8
  br i1 %31, label %32, label %33

32:                                               ; preds = %29
  store i32 22, ptr %16, align 4, !tbaa !19
  br label %77

33:                                               ; preds = %29
  %34 = load ptr, ptr %14, align 8, !tbaa !10
  %35 = load i64, ptr %34, align 8, !tbaa !13
  store i64 %35, ptr %17, align 8, !tbaa !13
  br label %36

36:                                               ; preds = %33, %26
  br label %37

37:                                               ; preds = %36
  br label %38

38:                                               ; preds = %37
  store i16 0, ptr %18, align 2, !tbaa !215
  %39 = load ptr, ptr %9, align 8, !tbaa !3
  %40 = load i64, ptr %17, align 8, !tbaa !13
  %41 = call zeroext i1 @duckdb_je_tcache_bin_ncached_max_read(ptr noundef %39, i64 noundef %40, ptr noundef %18)
  br i1 %41, label %42, label %43

42:                                               ; preds = %38
  store i32 22, ptr %16, align 4, !tbaa !19
  br label %77

43:                                               ; preds = %38
  %44 = load i16, ptr %18, align 2, !tbaa !215
  %45 = zext i16 %44 to i64
  store i64 %45, ptr %19, align 8, !tbaa !13
  br label %46

46:                                               ; preds = %43
  %47 = load ptr, ptr %12, align 8, !tbaa !10
  %48 = icmp ne ptr %47, null
  br i1 %48, label %49, label %74

49:                                               ; preds = %46
  %50 = load ptr, ptr %13, align 8, !tbaa !11
  %51 = icmp ne ptr %50, null
  br i1 %51, label %52, label %74

52:                                               ; preds = %49
  %53 = load ptr, ptr %13, align 8, !tbaa !11
  %54 = load i64, ptr %53, align 8, !tbaa !13
  %55 = icmp ne i64 %54, 8
  br i1 %55, label %56, label %71

56:                                               ; preds = %52
  call void @llvm.lifetime.start.p0(i64 8, ptr %20) #13
  %57 = load ptr, ptr %13, align 8, !tbaa !11
  %58 = load i64, ptr %57, align 8, !tbaa !13
  %59 = icmp ule i64 8, %58
  br i1 %59, label %60, label %61

60:                                               ; preds = %56
  br label %64

61:                                               ; preds = %56
  %62 = load ptr, ptr %13, align 8, !tbaa !11
  %63 = load i64, ptr %62, align 8, !tbaa !13
  br label %64

64:                                               ; preds = %61, %60
  %65 = phi i64 [ 8, %60 ], [ %63, %61 ]
  store i64 %65, ptr %20, align 8, !tbaa !13
  %66 = load ptr, ptr %12, align 8, !tbaa !10
  %67 = load i64, ptr %20, align 8, !tbaa !13
  call void @llvm.memcpy.p0.p0.i64(ptr align 1 %66, ptr align 1 %19, i64 %67, i1 false)
  %68 = load i64, ptr %20, align 8, !tbaa !13
  %69 = load ptr, ptr %13, align 8, !tbaa !11
  store i64 %68, ptr %69, align 8, !tbaa !13
  store i32 22, ptr %16, align 4, !tbaa !19
  store i32 2, ptr %21, align 4
  call void @llvm.lifetime.end.p0(i64 8, ptr %20) #13
  %70 = load i32, ptr %21, align 4
  switch i32 %70, label %79 [
    i32 2, label %77
  ]

71:                                               ; preds = %52
  %72 = load i64, ptr %19, align 8, !tbaa !13
  %73 = load ptr, ptr %12, align 8, !tbaa !10
  store i64 %72, ptr %73, align 8, !tbaa !13
  br label %74

74:                                               ; preds = %71, %49, %46
  br label %75

75:                                               ; preds = %74
  br label %76

76:                                               ; preds = %75
  store i32 0, ptr %16, align 4, !tbaa !19
  br label %77

77:                                               ; preds = %76, %64, %42, %32, %24
  %78 = load i32, ptr %16, align 4, !tbaa !19
  store i32 %78, ptr %8, align 4
  store i32 1, ptr %21, align 4
  br label %79

79:                                               ; preds = %77, %64
  call void @llvm.lifetime.end.p0(i64 8, ptr %17) #13
  call void @llvm.lifetime.end.p0(i64 4, ptr %16) #13
  %80 = load i32, ptr %8, align 4
  ret i32 %80
}